target datalayout = "e-m:e-p270:32:32-p271:32:32-p272:64:64-i64:64-i128:128-f80:128-n8:16:32:64-S128"
target triple = "x86_64-pc-linux-gnu"

%"class.folly::symbolizer::ElfFile" = type { [512 x i8], i32, ptr, i64, %"struct.folly::symbolizer::ElfFileId", i64 }
%"struct.folly::symbolizer::ElfFileId" = type { i64, i64, i64, i64 }
%"class.folly::Range" = type { ptr, ptr }
%struct.Elf64_Shdr = type { i32, i32, i64, i64, i64, i64, i32, i32, i64, i64 }

; Function Attrs: noinline noreturn nounwind uwtable
define linkonce_odr hidden void @__clang_call_terminate(ptr noundef %0) #15 comdat {
  %2 = call ptr @__cxa_begin_catch(ptr %0) #24
  call void @_ZSt9terminatev() #26
  unreachable
}

; Function Attrs: mustprogress nounwind uwtable
define linkonce_odr void @_ZN5folly5RangeIPKcEC2ES2_m(ptr noundef nonnull align 8 dereferenceable(16) %0, ptr noundef %1, i64 noundef %2) unnamed_addr #0 comdat align 2 {
  %4 = alloca ptr, align 8
  %5 = alloca ptr, align 8
  %6 = alloca i64, align 8
  store ptr %0, ptr %4, align 8, !tbaa !133
  store ptr %1, ptr %5, align 8, !tbaa !22
  store i64 %2, ptr %6, align 8, !tbaa !37
  %7 = load ptr, ptr %4, align 8
  %8 = getelementptr inbounds nuw %"class.folly::Range", ptr %7, i32 0, i32 0
  %9 = load ptr, ptr %5, align 8, !tbaa !22
  store ptr %9, ptr %8, align 8, !tbaa !135
  %10 = getelementptr inbounds nuw %"class.folly::Range", ptr %7, i32 0, i32 1
  %11 = load ptr, ptr %5, align 8, !tbaa !22
  %12 = load i64, ptr %6, align 8, !tbaa !37
  %13 = getelementptr inbounds nuw i8, ptr %11, i64 %12
  store ptr %13, ptr %10, align 8, !tbaa !145
  ret void
}

; Function Attrs: mustprogress nounwind uwtable
define { ptr, ptr } @_ZNK5folly10symbolizer7ElfFile14getSectionBodyERK10Elf64_Shdr(ptr noundef nonnull align 8 dereferenceable(576) %0, ptr noundef nonnull align 8 dereferenceable(64) %1) #0 align 2 personality ptr @__gxx_personality_v0 {
  %3 = alloca %"class.folly::Range", align 8
  %4 = alloca ptr, align 8
  %5 = alloca ptr, align 8
  store ptr %0, ptr %4, align 8, !tbaa !7
  store ptr %1, ptr %5, align 8, !tbaa !51
  %6 = load ptr, ptr %4, align 8
  %7 = getelementptr inbounds nuw %"class.folly::symbolizer::ElfFile", ptr %6, i32 0, i32 2
  %8 = load ptr, ptr %7, align 8, !tbaa !19
  %9 = load ptr, ptr %5, align 8, !tbaa !51
  %10 = getelementptr inbounds nuw %struct.Elf64_Shdr, ptr %9, i32 0, i32 4
  %11 = load i64, ptr %10, align 8, !tbaa !130
  %12 = getelementptr inbounds nuw i8, ptr %8, i64 %11
  %13 = load ptr, ptr %5, align 8, !tbaa !51
  %14 = getelementptr inbounds nuw %struct.Elf64_Shdr, ptr %13, i32 0, i32 5
  %15 = load i64, ptr %14, align 8, !tbaa !132
  invoke void @_ZN5folly5RangeIPKcEC2ES2_m(ptr noundef nonnull align 8 dereferenceable(16) %3, ptr noundef %12, i64 noundef %15)
          to label %16 unwind label %18

16:                                               ; preds = %2
  %17 = load { ptr, ptr }, ptr %3, align 8
  ret { ptr, ptr } %17

18:                                               ; preds = %2
  %19 = landingpad { ptr, i32 }
          catch ptr null
  %20 = extractvalue { ptr, i32 } %19, 0
  call void @__clang_call_terminate(ptr %20) #26
  unreachable
}