; Function Attrs: mustprogress nofree norecurse nosync nounwind willreturn memory(argmem: read) uwtable
define { ptr, ptr } @_ZNK5folly10symbolizer7ElfFile14getSectionBodyERK10Elf64_Shdr(ptr noundef nonnull readonly align 8 captures(none) dereferenceable(576) %0, ptr noundef nonnull readonly align 8 captures(none) dereferenceable(64) %1) local_unnamed_addr #23 align 2 personality ptr @__gxx_personality_v0 {
  %3 = getelementptr inbounds nuw i8, ptr %0, i64 520
  %4 = load ptr, ptr %3, align 8, !tbaa !17
  %5 = getelementptr inbounds nuw i8, ptr %1, i64 24
  %6 = load i64, ptr %5, align 8, !tbaa !75
  %7 = getelementptr inbounds nuw i8, ptr %4, i64 %6
  %8 = getelementptr inbounds nuw i8, ptr %1, i64 32
  %9 = load i64, ptr %8, align 8, !tbaa !80
  %10 = getelementptr inbounds nuw i8, ptr %7, i64 %9
  %.fca.0.insert = insertvalue { ptr, ptr } poison, ptr %7, 0
  %.fca.1.insert = insertvalue { ptr, ptr } %.fca.0.insert, ptr %10, 1
  ret { ptr, ptr } %.fca.1.insert
}